Certificate:
    Data:
        Version: 1 (0x0)
        Serial Number: 4097 (0x1001)
    Signature Algorithm: sha256WithRSAEncryption
        Issuer: CN=netopeer2 test Client Intermediate CA
        Validity
            Not Before: Aug 22 20:34:46 2018 GMT
            Not After : Jun 20 20:34:46 2068 GMT
        Subject: CN=netopeer2 test Client Leaf
        Subject Public Key Info:
            Public Key Algorithm: rsaEncryption
                Public-Key: (2048 bit)
                Modulus:
                    00:d4:31:fa:9f:7f:50:83:7a:39:36:49:8a:b8:ee:
                    5c:64:de:89:47:e5:d6:3e:fb:df:37:6f:a2:8b:56:
                    a1:43:3d:48:af:9b:1e:d3:57:1e:b7:b4:dd:62:ce:
                    44:39:06:0a:ca:36:0a:9f:ab:16:70:56:a8:5c:d6:
                    1b:94:34:7f:59:af:68:71:4c:40:31:ea:b1:4a:8a:
                    9c:8c:c4:c0:f9:9e:73:b8:c5:1c:b7:41:6b:52:bd:
                    08:a8:d9:34:50:1c:63:af:48:f0:43:3e:e2:43:63:
                    fe:a2:d3:97:76:ac:9b:c7:ba:f1:ad:60:c4:10:62:
                    e0:81:bf:33:65:93:0f:e5:03:d1:bd:ef:09:4c:36:
                    8e:ce:37:02:c7:9b:7b:fb:b3:76:f5:0f:66:23:99:
                    46:b8:c8:39:bb:65:37:e0:49:f0:93:84:ba:52:72:
                    b3:3d:3c:05:d0:dd:75:94:23:44:ee:cf:f0:2d:89:
                    4d:6b:1e:18:3f:ea:21:e6:b5:fc:43:36:b7:a6:a1:
                    86:7e:ed:2d:d4:39:57:9d:b2:23:a4:7a:4b:d1:19:
                    e4:a8:0f:52:d7:c4:7c:43:12:be:0d:4b:d9:52:da:
                    3f:af:65:f3:95:17:7c:ec:24:56:4c:6b:7a:14:c8:
                    cd:57:3d:0a:8f:ed:b8:9f:54:d0:04:d5:cd:9e:3e:
                    3d:17
                Exponent: 65537 (0x10001)
    Signature Algorithm: sha256WithRSAEncryption
         35:d0:ed:de:f4:f6:24:33:6c:b6:8a:9f:db:80:ad:51:af:ab:
         bd:5f:e7:f4:70:ee:46:9f:44:b9:3c:60:8f:c7:aa:bd:6f:f2:
         fe:36:cd:0d:19:ce:9c:8d:7c:f3:4b:31:28:2d:54:eb:0a:87:
         8c:27:e6:c2:2f:19:e6:08:b2:62:17:d1:3d:1c:9f:fa:01:95:
         d5:25:8d:ac:dd:71:c9:45:f4:cd:7f:ea:5e:8b:6e:27:1f:62:
         70:55:98:11:fe:28:68:fd:31:26:4f:18:aa:69:a7:a3:ce:1f:
         a8:7c:cd:ef:af:42:eb:80:49:73:b8:fa:dd:20:75:1a:4b:23:
         30:6a:64:b7:26:0b:d1:ea:45:ac:b0:0a:71:d6:d0:a6:e6:a0:
         f0:9a:e9:7d:2e:9a:cf:25:b7:a7:85:82:c6:38:c3:80:88:6e:
         26:78:50:59:e9:9d:ad:96:92:77:62:9a:56:99:c8:ab:28:8c:
         72:cc:23:ad:f6:98:a1:8c:c6:0c:c2:7a:cd:c5:48:80:18:36:
         44:81:21:c5:56:b0:d3:b7:dd:d5:a7:3a:6e:34:3d:99:2b:96:
         40:f7:dd:9f:d0:f8:c8:9c:ab:df:45:42:d2:e3:90:18:3f:e0:
         21:a8:01:d7:ba:62:99:53:f8:46:62:5f:cc:1d:9e:cc:a9:70:
         a0:d7:cd:36
-----BEGIN CERTIFICATE-----
MIICzDCCAbQCAhABMA0GCSqGSIb3DQEBCwUAMDAxLjAsBgNVBAMMJW5ldG9wZWVy
MiB0ZXN0IENsaWVudCBJbnRlcm1lZGlhdGUgQ0EwIBcNMTgwODIyMjAzNDQ2WhgP
MjA2ODA2MjAyMDM0NDZaMCUxIzAhBgNVBAMMGm5ldG9wZWVyMiB0ZXN0IENsaWVu
dCBMZWFmMIIBIjANBgkqhkiG9w0BAQEFAAOCAQ8AMIIBCgKCAQEA1DH6n39Qg3o5
NkmKuO5cZN6JR+XWPvvfN2+ii1ahQz1Ir5se01cet7TdYs5EOQYKyjYKn6sWcFao
XNYblDR/Wa9ocUxAMeqxSoqcjMTA+Z5zuMUct0FrUr0IqNk0UBxjr0jwQz7iQ2P+
otOXdqybx7rxrWDEEGLggb8zZZMP5QPRve8JTDaOzjcCx5t7+7N29Q9mI5lGuMg5
u2U34Enwk4S6UnKzPTwF0N11lCNE7s/wLYlNax4YP+oh5rX8Qza3pqGGfu0t1DlX
nbIjpHpL0RnkqA9S18R8QxK+DUvZUto/r2XzlRd87CRWTGt6FMjNVz0Kj+24n1TQ
BNXNnj49FwIDAQABMA0GCSqGSIb3DQEBCwUAA4IBAQA10O3e9PYkM2y2ip/bgK1R
r6u9X+f0cO5Gn0S5PGCPx6q9b/L+Ns0NGc6cjXzzSzEoLVTrCoeMJ+bCLxnmCLJi
F9E9HJ/6AZXVJY2s3XHJRfTNf+pei24nH2JwVZgR/iho/TEmTxiqaaejzh+ofM3v
r0LrgElzuPrdIHUaSyMwamS3JgvR6kWssApx1tCm5qDwmul9LprPJbenhYLGOMOA
iG4meFBZ6Z2tlpJ3YppWmcirKIxyzCOt9pihjMYMwnrNxUiAGDZEgSHFVrDTt93V
pzpuND2ZK5ZA992f0PjInKvfRULS45AYP+AhqAHXumKZU/hGYl/MHZ7MqXCg1802
-----END CERTIFICATE-----
